ARM GAS  C:\Users\gerwi\AppData\Local\Temp\cc2t4O53.s 			page 1


   1              		.syntax unified
   2              		.cpu cortex-m3
   3              		.fpu softvfp
   4              		.eabi_attribute 20, 1
   5              		.eabi_attribute 21, 1
   6              		.eabi_attribute 23, 3
   7              		.eabi_attribute 24, 1
   8              		.eabi_attribute 25, 1
   9              		.eabi_attribute 26, 1
  10              		.eabi_attribute 30, 6
  11              		.eabi_attribute 34, 1
  12              		.eabi_attribute 18, 4
  13              		.thumb
  14              		.syntax unified
  15              		.file	"cyfitter_cfg.c"
  16              		.text
  17              	.Ltext0:
  18              		.cfi_sections	.debug_frame
  19              		.section	.text.CYMEMZERO,"ax",%progbits
  20              		.align	2
  21              		.thumb
  22              		.thumb_func
  23              		.type	CYMEMZERO, %function
  24              	CYMEMZERO:
  25              	.LFB0:
  26              		.file 1 "Generated_Source\\PSoC5\\cyfitter_cfg.c"
   1:Generated_Source\PSoC5/cyfitter_cfg.c **** 
   2:Generated_Source\PSoC5/cyfitter_cfg.c **** /*******************************************************************************
   3:Generated_Source\PSoC5/cyfitter_cfg.c **** * File Name: cyfitter_cfg.c
   4:Generated_Source\PSoC5/cyfitter_cfg.c **** * 
   5:Generated_Source\PSoC5/cyfitter_cfg.c **** * PSoC Creator  4.2
   6:Generated_Source\PSoC5/cyfitter_cfg.c **** *
   7:Generated_Source\PSoC5/cyfitter_cfg.c **** * Description:
   8:Generated_Source\PSoC5/cyfitter_cfg.c **** * This file contains device initialization code.
   9:Generated_Source\PSoC5/cyfitter_cfg.c **** * Except for the user defined sections in CyClockStartupError(), this file should not be modified.
  10:Generated_Source\PSoC5/cyfitter_cfg.c **** * This file is automatically generated by PSoC Creator.
  11:Generated_Source\PSoC5/cyfitter_cfg.c **** *
  12:Generated_Source\PSoC5/cyfitter_cfg.c **** ********************************************************************************
  13:Generated_Source\PSoC5/cyfitter_cfg.c **** * Copyright (c) 2007-2018 Cypress Semiconductor.  All rights reserved.
  14:Generated_Source\PSoC5/cyfitter_cfg.c **** * You may use this file only in accordance with the license, terms, conditions, 
  15:Generated_Source\PSoC5/cyfitter_cfg.c **** * disclaimers, and limitations in the end user license agreement accompanying 
  16:Generated_Source\PSoC5/cyfitter_cfg.c **** * the software package with which this file was provided.
  17:Generated_Source\PSoC5/cyfitter_cfg.c **** ********************************************************************************/
  18:Generated_Source\PSoC5/cyfitter_cfg.c **** 
  19:Generated_Source\PSoC5/cyfitter_cfg.c **** #include <string.h>
  20:Generated_Source\PSoC5/cyfitter_cfg.c **** #include "cytypes.h"
  21:Generated_Source\PSoC5/cyfitter_cfg.c **** #include "cydevice_trm.h"
  22:Generated_Source\PSoC5/cyfitter_cfg.c **** #include "cyfitter.h"
  23:Generated_Source\PSoC5/cyfitter_cfg.c **** #include "CyLib.h"
  24:Generated_Source\PSoC5/cyfitter_cfg.c **** #include "cyfitter_cfg.h"
  25:Generated_Source\PSoC5/cyfitter_cfg.c **** #include "cyapicallbacks.h"
  26:Generated_Source\PSoC5/cyfitter_cfg.c **** 
  27:Generated_Source\PSoC5/cyfitter_cfg.c **** 
  28:Generated_Source\PSoC5/cyfitter_cfg.c **** #if defined(__GNUC__) || defined(__ARMCC_VERSION)
  29:Generated_Source\PSoC5/cyfitter_cfg.c ****     #define CYPACKED 
  30:Generated_Source\PSoC5/cyfitter_cfg.c ****     #define CYPACKED_ATTR __attribute__ ((packed))
  31:Generated_Source\PSoC5/cyfitter_cfg.c ****     #define CYALIGNED __attribute__ ((aligned))
ARM GAS  C:\Users\gerwi\AppData\Local\Temp\cc2t4O53.s 			page 2


  32:Generated_Source\PSoC5/cyfitter_cfg.c ****     #define CY_CFG_UNUSED __attribute__ ((unused))
  33:Generated_Source\PSoC5/cyfitter_cfg.c ****     #ifndef CY_CFG_SECTION
  34:Generated_Source\PSoC5/cyfitter_cfg.c ****         #define CY_CFG_SECTION __attribute__ ((section(".psocinit")))
  35:Generated_Source\PSoC5/cyfitter_cfg.c ****     #endif
  36:Generated_Source\PSoC5/cyfitter_cfg.c ****     
  37:Generated_Source\PSoC5/cyfitter_cfg.c ****     #if defined(__ARMCC_VERSION)
  38:Generated_Source\PSoC5/cyfitter_cfg.c ****         #define CY_CFG_MEMORY_BARRIER() __memory_changed()
  39:Generated_Source\PSoC5/cyfitter_cfg.c ****     #else
  40:Generated_Source\PSoC5/cyfitter_cfg.c ****         #define CY_CFG_MEMORY_BARRIER() __sync_synchronize()
  41:Generated_Source\PSoC5/cyfitter_cfg.c ****     #endif
  42:Generated_Source\PSoC5/cyfitter_cfg.c ****     
  43:Generated_Source\PSoC5/cyfitter_cfg.c **** #elif defined(__ICCARM__)
  44:Generated_Source\PSoC5/cyfitter_cfg.c ****     #include <intrinsics.h>
  45:Generated_Source\PSoC5/cyfitter_cfg.c **** 
  46:Generated_Source\PSoC5/cyfitter_cfg.c ****     #define CYPACKED __packed
  47:Generated_Source\PSoC5/cyfitter_cfg.c ****     #define CYPACKED_ATTR 
  48:Generated_Source\PSoC5/cyfitter_cfg.c ****     #define CYALIGNED _Pragma("data_alignment=4")
  49:Generated_Source\PSoC5/cyfitter_cfg.c ****     #define CY_CFG_UNUSED _Pragma("diag_suppress=Pe177")
  50:Generated_Source\PSoC5/cyfitter_cfg.c ****     #define CY_CFG_SECTION _Pragma("location=\".psocinit\"")
  51:Generated_Source\PSoC5/cyfitter_cfg.c ****     
  52:Generated_Source\PSoC5/cyfitter_cfg.c ****     #define CY_CFG_MEMORY_BARRIER() __DMB()
  53:Generated_Source\PSoC5/cyfitter_cfg.c ****     
  54:Generated_Source\PSoC5/cyfitter_cfg.c **** #else
  55:Generated_Source\PSoC5/cyfitter_cfg.c ****     #error Unsupported toolchain
  56:Generated_Source\PSoC5/cyfitter_cfg.c **** #endif
  57:Generated_Source\PSoC5/cyfitter_cfg.c **** 
  58:Generated_Source\PSoC5/cyfitter_cfg.c **** #ifndef CYCODE
  59:Generated_Source\PSoC5/cyfitter_cfg.c ****     #define CYCODE
  60:Generated_Source\PSoC5/cyfitter_cfg.c **** #endif
  61:Generated_Source\PSoC5/cyfitter_cfg.c **** #ifndef CYDATA
  62:Generated_Source\PSoC5/cyfitter_cfg.c ****     #define CYDATA
  63:Generated_Source\PSoC5/cyfitter_cfg.c **** #endif
  64:Generated_Source\PSoC5/cyfitter_cfg.c **** #ifndef CYFAR
  65:Generated_Source\PSoC5/cyfitter_cfg.c ****     #define CYFAR
  66:Generated_Source\PSoC5/cyfitter_cfg.c **** #endif
  67:Generated_Source\PSoC5/cyfitter_cfg.c **** #ifndef CYXDATA
  68:Generated_Source\PSoC5/cyfitter_cfg.c ****     #define CYXDATA
  69:Generated_Source\PSoC5/cyfitter_cfg.c **** #endif
  70:Generated_Source\PSoC5/cyfitter_cfg.c **** 
  71:Generated_Source\PSoC5/cyfitter_cfg.c **** 
  72:Generated_Source\PSoC5/cyfitter_cfg.c **** CY_CFG_UNUSED
  73:Generated_Source\PSoC5/cyfitter_cfg.c **** static void CYMEMZERO(void *s, size_t n);
  74:Generated_Source\PSoC5/cyfitter_cfg.c **** CY_CFG_UNUSED
  75:Generated_Source\PSoC5/cyfitter_cfg.c **** static void CYMEMZERO(void *s, size_t n)
  76:Generated_Source\PSoC5/cyfitter_cfg.c **** {
  27              		.loc 1 76 0
  28              		.cfi_startproc
  29              		@ args = 0, pretend = 0, frame = 8
  30              		@ frame_needed = 1, uses_anonymous_args = 0
  31 0000 80B5     		push	{r7, lr}
  32              		.cfi_def_cfa_offset 8
  33              		.cfi_offset 7, -8
  34              		.cfi_offset 14, -4
  35 0002 82B0     		sub	sp, sp, #8
  36              		.cfi_def_cfa_offset 16
  37 0004 00AF     		add	r7, sp, #0
  38              		.cfi_def_cfa_register 7
ARM GAS  C:\Users\gerwi\AppData\Local\Temp\cc2t4O53.s 			page 3


  39 0006 7860     		str	r0, [r7, #4]
  40 0008 3960     		str	r1, [r7]
  77:Generated_Source\PSoC5/cyfitter_cfg.c **** 	(void)memset(s, 0, n);
  41              		.loc 1 77 0
  42 000a 3A68     		ldr	r2, [r7]
  43 000c 0021     		movs	r1, #0
  44 000e 7868     		ldr	r0, [r7, #4]
  45 0010 FFF7FEFF 		bl	memset
  78:Generated_Source\PSoC5/cyfitter_cfg.c **** }
  46              		.loc 1 78 0
  47 0014 00BF     		nop
  48 0016 0837     		adds	r7, r7, #8
  49              		.cfi_def_cfa_offset 8
  50 0018 BD46     		mov	sp, r7
  51              		.cfi_def_cfa_register 13
  52              		@ sp needed
  53 001a 80BD     		pop	{r7, pc}
  54              		.cfi_endproc
  55              	.LFE0:
  56              		.size	CYMEMZERO, .-CYMEMZERO
  57              		.section	.text.CYCONFIGCPY,"ax",%progbits
  58              		.align	2
  59              		.thumb
  60              		.thumb_func
  61              		.type	CYCONFIGCPY, %function
  62              	CYCONFIGCPY:
  63              	.LFB1:
  79:Generated_Source\PSoC5/cyfitter_cfg.c **** CY_CFG_UNUSED
  80:Generated_Source\PSoC5/cyfitter_cfg.c **** static void CYCONFIGCPY(void *dest, const void *src, size_t n);
  81:Generated_Source\PSoC5/cyfitter_cfg.c **** CY_CFG_UNUSED
  82:Generated_Source\PSoC5/cyfitter_cfg.c **** static void CYCONFIGCPY(void *dest, const void *src, size_t n)
  83:Generated_Source\PSoC5/cyfitter_cfg.c **** {
  64              		.loc 1 83 0
  65              		.cfi_startproc
  66              		@ args = 0, pretend = 0, frame = 16
  67              		@ frame_needed = 1, uses_anonymous_args = 0
  68 0000 80B5     		push	{r7, lr}
  69              		.cfi_def_cfa_offset 8
  70              		.cfi_offset 7, -8
  71              		.cfi_offset 14, -4
  72 0002 84B0     		sub	sp, sp, #16
  73              		.cfi_def_cfa_offset 24
  74 0004 00AF     		add	r7, sp, #0
  75              		.cfi_def_cfa_register 7
  76 0006 F860     		str	r0, [r7, #12]
  77 0008 B960     		str	r1, [r7, #8]
  78 000a 7A60     		str	r2, [r7, #4]
  84:Generated_Source\PSoC5/cyfitter_cfg.c **** 	(void)memcpy(dest, src, n);
  79              		.loc 1 84 0
  80 000c 7A68     		ldr	r2, [r7, #4]
  81 000e B968     		ldr	r1, [r7, #8]
  82 0010 F868     		ldr	r0, [r7, #12]
  83 0012 FFF7FEFF 		bl	memcpy
  85:Generated_Source\PSoC5/cyfitter_cfg.c **** }
  84              		.loc 1 85 0
  85 0016 00BF     		nop
  86 0018 1037     		adds	r7, r7, #16
ARM GAS  C:\Users\gerwi\AppData\Local\Temp\cc2t4O53.s 			page 4


  87              		.cfi_def_cfa_offset 8
  88 001a BD46     		mov	sp, r7
  89              		.cfi_def_cfa_register 13
  90              		@ sp needed
  91 001c 80BD     		pop	{r7, pc}
  92              		.cfi_endproc
  93              	.LFE1:
  94              		.size	CYCONFIGCPY, .-CYCONFIGCPY
  95 001e 00BF     		.section	.text.CYCONFIGCPYCODE,"ax",%progbits
  96              		.align	2
  97              		.thumb
  98              		.thumb_func
  99              		.type	CYCONFIGCPYCODE, %function
 100              	CYCONFIGCPYCODE:
 101              	.LFB2:
  86:Generated_Source\PSoC5/cyfitter_cfg.c **** CY_CFG_UNUSED
  87:Generated_Source\PSoC5/cyfitter_cfg.c **** static void CYCONFIGCPYCODE(void *dest, const void *src, size_t n);
  88:Generated_Source\PSoC5/cyfitter_cfg.c **** CY_CFG_UNUSED
  89:Generated_Source\PSoC5/cyfitter_cfg.c **** static void CYCONFIGCPYCODE(void *dest, const void *src, size_t n)
  90:Generated_Source\PSoC5/cyfitter_cfg.c **** {
 102              		.loc 1 90 0
 103              		.cfi_startproc
 104              		@ args = 0, pretend = 0, frame = 16
 105              		@ frame_needed = 1, uses_anonymous_args = 0
 106 0000 80B5     		push	{r7, lr}
 107              		.cfi_def_cfa_offset 8
 108              		.cfi_offset 7, -8
 109              		.cfi_offset 14, -4
 110 0002 84B0     		sub	sp, sp, #16
 111              		.cfi_def_cfa_offset 24
 112 0004 00AF     		add	r7, sp, #0
 113              		.cfi_def_cfa_register 7
 114 0006 F860     		str	r0, [r7, #12]
 115 0008 B960     		str	r1, [r7, #8]
 116 000a 7A60     		str	r2, [r7, #4]
  91:Generated_Source\PSoC5/cyfitter_cfg.c **** 	(void)memcpy(dest, src, n);
 117              		.loc 1 91 0
 118 000c 7A68     		ldr	r2, [r7, #4]
 119 000e B968     		ldr	r1, [r7, #8]
 120 0010 F868     		ldr	r0, [r7, #12]
 121 0012 FFF7FEFF 		bl	memcpy
  92:Generated_Source\PSoC5/cyfitter_cfg.c **** }
 122              		.loc 1 92 0
 123 0016 00BF     		nop
 124 0018 1037     		adds	r7, r7, #16
 125              		.cfi_def_cfa_offset 8
 126 001a BD46     		mov	sp, r7
 127              		.cfi_def_cfa_register 13
 128              		@ sp needed
 129 001c 80BD     		pop	{r7, pc}
 130              		.cfi_endproc
 131              	.LFE2:
 132              		.size	CYCONFIGCPYCODE, .-CYCONFIGCPYCODE
 133 001e 00BF     		.section	.text.cfg_write_bytes32,"ax",%progbits
 134              		.align	2
 135              		.thumb
 136              		.thumb_func
ARM GAS  C:\Users\gerwi\AppData\Local\Temp\cc2t4O53.s 			page 5


 137              		.type	cfg_write_bytes32, %function
 138              	cfg_write_bytes32:
 139              	.LFB3:
  93:Generated_Source\PSoC5/cyfitter_cfg.c **** 
  94:Generated_Source\PSoC5/cyfitter_cfg.c **** 
  95:Generated_Source\PSoC5/cyfitter_cfg.c **** 
  96:Generated_Source\PSoC5/cyfitter_cfg.c **** 
  97:Generated_Source\PSoC5/cyfitter_cfg.c **** /* Clock startup error codes                                                   */
  98:Generated_Source\PSoC5/cyfitter_cfg.c **** #define CYCLOCKSTART_NO_ERROR    0u
  99:Generated_Source\PSoC5/cyfitter_cfg.c **** #define CYCLOCKSTART_XTAL_ERROR  1u
 100:Generated_Source\PSoC5/cyfitter_cfg.c **** #define CYCLOCKSTART_32KHZ_ERROR 2u
 101:Generated_Source\PSoC5/cyfitter_cfg.c **** #define CYCLOCKSTART_PLL_ERROR   3u
 102:Generated_Source\PSoC5/cyfitter_cfg.c **** #define CYCLOCKSTART_FLL_ERROR   4u
 103:Generated_Source\PSoC5/cyfitter_cfg.c **** #define CYCLOCKSTART_WCO_ERROR   5u
 104:Generated_Source\PSoC5/cyfitter_cfg.c **** 
 105:Generated_Source\PSoC5/cyfitter_cfg.c **** 
 106:Generated_Source\PSoC5/cyfitter_cfg.c **** #ifdef CY_NEED_CYCLOCKSTARTUPERROR
 107:Generated_Source\PSoC5/cyfitter_cfg.c **** /*******************************************************************************
 108:Generated_Source\PSoC5/cyfitter_cfg.c **** * Function Name: CyClockStartupError
 109:Generated_Source\PSoC5/cyfitter_cfg.c **** ********************************************************************************
 110:Generated_Source\PSoC5/cyfitter_cfg.c **** * Summary:
 111:Generated_Source\PSoC5/cyfitter_cfg.c **** *  If an error is encountered during clock configuration (crystal startup error,
 112:Generated_Source\PSoC5/cyfitter_cfg.c **** *  PLL lock error, etc.), the system will end up here.  Unless reimplemented by
 113:Generated_Source\PSoC5/cyfitter_cfg.c **** *  the customer, this function will stop in an infinite loop.
 114:Generated_Source\PSoC5/cyfitter_cfg.c **** *
 115:Generated_Source\PSoC5/cyfitter_cfg.c **** * Parameters:
 116:Generated_Source\PSoC5/cyfitter_cfg.c **** *   void
 117:Generated_Source\PSoC5/cyfitter_cfg.c **** *
 118:Generated_Source\PSoC5/cyfitter_cfg.c **** * Return:
 119:Generated_Source\PSoC5/cyfitter_cfg.c **** *   void
 120:Generated_Source\PSoC5/cyfitter_cfg.c **** *
 121:Generated_Source\PSoC5/cyfitter_cfg.c **** *******************************************************************************/
 122:Generated_Source\PSoC5/cyfitter_cfg.c **** CY_CFG_UNUSED
 123:Generated_Source\PSoC5/cyfitter_cfg.c **** static void CyClockStartupError(uint8 errorCode);
 124:Generated_Source\PSoC5/cyfitter_cfg.c **** CY_CFG_UNUSED
 125:Generated_Source\PSoC5/cyfitter_cfg.c **** static void CyClockStartupError(uint8 errorCode)
 126:Generated_Source\PSoC5/cyfitter_cfg.c **** {
 127:Generated_Source\PSoC5/cyfitter_cfg.c ****     /* To remove the compiler warning if errorCode not used.                */
 128:Generated_Source\PSoC5/cyfitter_cfg.c ****     errorCode = errorCode;
 129:Generated_Source\PSoC5/cyfitter_cfg.c **** 
 130:Generated_Source\PSoC5/cyfitter_cfg.c ****     /* If we have a clock startup error (bad MHz crystal, PLL lock, etc.),  */
 131:Generated_Source\PSoC5/cyfitter_cfg.c ****     /* we will end up here to allow the customer to implement something to  */
 132:Generated_Source\PSoC5/cyfitter_cfg.c ****     /* deal with the clock condition.                                       */
 133:Generated_Source\PSoC5/cyfitter_cfg.c **** 
 134:Generated_Source\PSoC5/cyfitter_cfg.c **** #ifdef CY_CFG_CLOCK_STARTUP_ERROR_CALLBACK
 135:Generated_Source\PSoC5/cyfitter_cfg.c ****     CY_CFG_Clock_Startup_ErrorCallback();
 136:Generated_Source\PSoC5/cyfitter_cfg.c **** #else
 137:Generated_Source\PSoC5/cyfitter_cfg.c ****     /*  If not using CY_CFG_CLOCK_STARTUP_ERROR_CALLBACK, place your clock startup code here. */
 138:Generated_Source\PSoC5/cyfitter_cfg.c ****     /* `#START CyClockStartupError` */
 139:Generated_Source\PSoC5/cyfitter_cfg.c **** 
 140:Generated_Source\PSoC5/cyfitter_cfg.c **** 
 141:Generated_Source\PSoC5/cyfitter_cfg.c **** 
 142:Generated_Source\PSoC5/cyfitter_cfg.c ****     /* `#END` */
 143:Generated_Source\PSoC5/cyfitter_cfg.c **** 
 144:Generated_Source\PSoC5/cyfitter_cfg.c ****     while(1) {}
 145:Generated_Source\PSoC5/cyfitter_cfg.c **** #endif /* CY_CFG_CLOCK_STARTUP_ERROR_CALLBACK */
 146:Generated_Source\PSoC5/cyfitter_cfg.c **** }
ARM GAS  C:\Users\gerwi\AppData\Local\Temp\cc2t4O53.s 			page 6


 147:Generated_Source\PSoC5/cyfitter_cfg.c **** #endif
 148:Generated_Source\PSoC5/cyfitter_cfg.c **** 
 149:Generated_Source\PSoC5/cyfitter_cfg.c **** #define CY_CFG_BASE_ADDR_COUNT 29u
 150:Generated_Source\PSoC5/cyfitter_cfg.c **** CYPACKED typedef struct
 151:Generated_Source\PSoC5/cyfitter_cfg.c **** {
 152:Generated_Source\PSoC5/cyfitter_cfg.c **** 	uint8 offset;
 153:Generated_Source\PSoC5/cyfitter_cfg.c **** 	uint8 value;
 154:Generated_Source\PSoC5/cyfitter_cfg.c **** } CYPACKED_ATTR cy_cfg_addrvalue_t;
 155:Generated_Source\PSoC5/cyfitter_cfg.c **** 
 156:Generated_Source\PSoC5/cyfitter_cfg.c **** #define cy_cfg_addr_table ((const uint32 CYFAR *)0x48000000u)
 157:Generated_Source\PSoC5/cyfitter_cfg.c **** #define cy_cfg_data_table ((const cy_cfg_addrvalue_t CYFAR *)0x48000074u)
 158:Generated_Source\PSoC5/cyfitter_cfg.c **** 
 159:Generated_Source\PSoC5/cyfitter_cfg.c **** /* UDB_0_0_1_CONFIG Address: CYDEV_UCFG_B1_P5_U1_BASE Size (bytes): 128 */
 160:Generated_Source\PSoC5/cyfitter_cfg.c **** #define BS_UDB_0_0_1_CONFIG_VAL ((const uint8 CYFAR *)0x480003D0u)
 161:Generated_Source\PSoC5/cyfitter_cfg.c **** 
 162:Generated_Source\PSoC5/cyfitter_cfg.c **** /* IOPINS0_0 Address: CYREG_PRT0_DM0 Size (bytes): 8 */
 163:Generated_Source\PSoC5/cyfitter_cfg.c **** #define BS_IOPINS0_0_VAL ((const uint8 CYFAR *)0x48000450u)
 164:Generated_Source\PSoC5/cyfitter_cfg.c **** 
 165:Generated_Source\PSoC5/cyfitter_cfg.c **** /* IOPINS0_7 Address: CYREG_PRT12_DR Size (bytes): 10 */
 166:Generated_Source\PSoC5/cyfitter_cfg.c **** #define BS_IOPINS0_7_VAL ((const uint8 CYFAR *)0x48000458u)
 167:Generated_Source\PSoC5/cyfitter_cfg.c **** 
 168:Generated_Source\PSoC5/cyfitter_cfg.c **** /* IOPINS0_8 Address: CYREG_PRT15_DR Size (bytes): 10 */
 169:Generated_Source\PSoC5/cyfitter_cfg.c **** #define BS_IOPINS0_8_VAL ((const uint8 CYFAR *)0x48000464u)
 170:Generated_Source\PSoC5/cyfitter_cfg.c **** 
 171:Generated_Source\PSoC5/cyfitter_cfg.c **** /* IOPINS0_1 Address: CYREG_PRT1_DM0 Size (bytes): 8 */
 172:Generated_Source\PSoC5/cyfitter_cfg.c **** #define BS_IOPINS0_1_VAL ((const uint8 CYFAR *)0x48000470u)
 173:Generated_Source\PSoC5/cyfitter_cfg.c **** 
 174:Generated_Source\PSoC5/cyfitter_cfg.c **** /* CYDEV_CLKDIST_ACFG0_CFG0 Address: CYREG_CLKDIST_ACFG0_CFG0 Size (bytes): 4 */
 175:Generated_Source\PSoC5/cyfitter_cfg.c **** #define BS_CYDEV_CLKDIST_ACFG0_CFG0_VAL ((const uint8 CYFAR *)0x48000478u)
 176:Generated_Source\PSoC5/cyfitter_cfg.c **** 
 177:Generated_Source\PSoC5/cyfitter_cfg.c **** 
 178:Generated_Source\PSoC5/cyfitter_cfg.c **** /*******************************************************************************
 179:Generated_Source\PSoC5/cyfitter_cfg.c **** * Function Name: cfg_write_bytes32
 180:Generated_Source\PSoC5/cyfitter_cfg.c **** ********************************************************************************
 181:Generated_Source\PSoC5/cyfitter_cfg.c **** * Summary:
 182:Generated_Source\PSoC5/cyfitter_cfg.c **** *  This function is used for setting up the chip configuration areas that
 183:Generated_Source\PSoC5/cyfitter_cfg.c **** *  contain relatively sparse data.
 184:Generated_Source\PSoC5/cyfitter_cfg.c **** *
 185:Generated_Source\PSoC5/cyfitter_cfg.c **** * Parameters:
 186:Generated_Source\PSoC5/cyfitter_cfg.c **** *   void
 187:Generated_Source\PSoC5/cyfitter_cfg.c **** *
 188:Generated_Source\PSoC5/cyfitter_cfg.c **** * Return:
 189:Generated_Source\PSoC5/cyfitter_cfg.c **** *   void
 190:Generated_Source\PSoC5/cyfitter_cfg.c **** *
 191:Generated_Source\PSoC5/cyfitter_cfg.c **** *******************************************************************************/
 192:Generated_Source\PSoC5/cyfitter_cfg.c **** static void cfg_write_bytes32(const uint32 addr_table[], const cy_cfg_addrvalue_t data_table[]);
 193:Generated_Source\PSoC5/cyfitter_cfg.c **** static void cfg_write_bytes32(const uint32 addr_table[], const cy_cfg_addrvalue_t data_table[])
 194:Generated_Source\PSoC5/cyfitter_cfg.c **** {
 140              		.loc 1 194 0
 141              		.cfi_startproc
 142              		@ args = 0, pretend = 0, frame = 24
 143              		@ frame_needed = 1, uses_anonymous_args = 0
 144              		@ link register save eliminated.
 145 0000 80B4     		push	{r7}
 146              		.cfi_def_cfa_offset 4
 147              		.cfi_offset 7, -4
 148 0002 87B0     		sub	sp, sp, #28
ARM GAS  C:\Users\gerwi\AppData\Local\Temp\cc2t4O53.s 			page 7


 149              		.cfi_def_cfa_offset 32
 150 0004 00AF     		add	r7, sp, #0
 151              		.cfi_def_cfa_register 7
 152 0006 7860     		str	r0, [r7, #4]
 153 0008 3960     		str	r1, [r7]
 195:Generated_Source\PSoC5/cyfitter_cfg.c **** 	/* For 32-bit little-endian architectures */
 196:Generated_Source\PSoC5/cyfitter_cfg.c **** 	uint32 i, j = 0u;
 154              		.loc 1 196 0
 155 000a 0023     		movs	r3, #0
 156 000c 3B61     		str	r3, [r7, #16]
 197:Generated_Source\PSoC5/cyfitter_cfg.c **** 	for (i = 0u; i < CY_CFG_BASE_ADDR_COUNT; i++)
 157              		.loc 1 197 0
 158 000e 0023     		movs	r3, #0
 159 0010 7B61     		str	r3, [r7, #20]
 160 0012 27E0     		b	.L5
 161              	.L8:
 162              	.LBB2:
 198:Generated_Source\PSoC5/cyfitter_cfg.c **** 	{
 199:Generated_Source\PSoC5/cyfitter_cfg.c **** 		uint32 baseAddr = addr_table[i];
 163              		.loc 1 199 0
 164 0014 7B69     		ldr	r3, [r7, #20]
 165 0016 9B00     		lsls	r3, r3, #2
 166 0018 7A68     		ldr	r2, [r7, #4]
 167 001a 1344     		add	r3, r3, r2
 168 001c 1B68     		ldr	r3, [r3]
 169 001e BB60     		str	r3, [r7, #8]
 200:Generated_Source\PSoC5/cyfitter_cfg.c **** 		uint8 count = (uint8)baseAddr;
 170              		.loc 1 200 0
 171 0020 BB68     		ldr	r3, [r7, #8]
 172 0022 FB73     		strb	r3, [r7, #15]
 201:Generated_Source\PSoC5/cyfitter_cfg.c **** 		baseAddr &= 0xFFFFFF00u;
 173              		.loc 1 201 0
 174 0024 BB68     		ldr	r3, [r7, #8]
 175 0026 23F0FF03 		bic	r3, r3, #255
 176 002a BB60     		str	r3, [r7, #8]
 202:Generated_Source\PSoC5/cyfitter_cfg.c **** 		while (count != 0u)
 177              		.loc 1 202 0
 178 002c 14E0     		b	.L6
 179              	.L7:
 203:Generated_Source\PSoC5/cyfitter_cfg.c **** 		{
 204:Generated_Source\PSoC5/cyfitter_cfg.c **** 			CY_SET_REG8((void *)(baseAddr + data_table[j].offset), data_table[j].value);
 180              		.loc 1 204 0
 181 002e 3B69     		ldr	r3, [r7, #16]
 182 0030 5B00     		lsls	r3, r3, #1
 183 0032 3A68     		ldr	r2, [r7]
 184 0034 1344     		add	r3, r3, r2
 185 0036 1B78     		ldrb	r3, [r3]	@ zero_extendqisi2
 186 0038 1A46     		mov	r2, r3
 187 003a BB68     		ldr	r3, [r7, #8]
 188 003c 1344     		add	r3, r3, r2
 189 003e 1946     		mov	r1, r3
 190 0040 3B69     		ldr	r3, [r7, #16]
 191 0042 5B00     		lsls	r3, r3, #1
 192 0044 3A68     		ldr	r2, [r7]
 193 0046 1344     		add	r3, r3, r2
 194 0048 5B78     		ldrb	r3, [r3, #1]	@ zero_extendqisi2
 195 004a 0B70     		strb	r3, [r1]
ARM GAS  C:\Users\gerwi\AppData\Local\Temp\cc2t4O53.s 			page 8


 205:Generated_Source\PSoC5/cyfitter_cfg.c **** 			j++;
 196              		.loc 1 205 0
 197 004c 3B69     		ldr	r3, [r7, #16]
 198 004e 0133     		adds	r3, r3, #1
 199 0050 3B61     		str	r3, [r7, #16]
 206:Generated_Source\PSoC5/cyfitter_cfg.c **** 			count--;
 200              		.loc 1 206 0
 201 0052 FB7B     		ldrb	r3, [r7, #15]	@ zero_extendqisi2
 202 0054 013B     		subs	r3, r3, #1
 203 0056 FB73     		strb	r3, [r7, #15]
 204              	.L6:
 202:Generated_Source\PSoC5/cyfitter_cfg.c **** 		{
 205              		.loc 1 202 0
 206 0058 FB7B     		ldrb	r3, [r7, #15]	@ zero_extendqisi2
 207 005a 002B     		cmp	r3, #0
 208 005c E7D1     		bne	.L7
 209              	.LBE2:
 197:Generated_Source\PSoC5/cyfitter_cfg.c **** 	{
 210              		.loc 1 197 0 discriminator 2
 211 005e 7B69     		ldr	r3, [r7, #20]
 212 0060 0133     		adds	r3, r3, #1
 213 0062 7B61     		str	r3, [r7, #20]
 214              	.L5:
 197:Generated_Source\PSoC5/cyfitter_cfg.c **** 	{
 215              		.loc 1 197 0 is_stmt 0 discriminator 1
 216 0064 7B69     		ldr	r3, [r7, #20]
 217 0066 1C2B     		cmp	r3, #28
 218 0068 D4D9     		bls	.L8
 207:Generated_Source\PSoC5/cyfitter_cfg.c **** 		}
 208:Generated_Source\PSoC5/cyfitter_cfg.c **** 	}
 209:Generated_Source\PSoC5/cyfitter_cfg.c **** }
 219              		.loc 1 209 0 is_stmt 1
 220 006a 00BF     		nop
 221 006c 1C37     		adds	r7, r7, #28
 222              		.cfi_def_cfa_offset 4
 223 006e BD46     		mov	sp, r7
 224              		.cfi_def_cfa_register 13
 225              		@ sp needed
 226 0070 80BC     		pop	{r7}
 227              		.cfi_restore 7
 228              		.cfi_def_cfa_offset 0
 229 0072 7047     		bx	lr
 230              		.cfi_endproc
 231              	.LFE3:
 232              		.size	cfg_write_bytes32, .-cfg_write_bytes32
 233              		.section	.text.ClockSetup,"ax",%progbits
 234              		.align	2
 235              		.thumb
 236              		.thumb_func
 237              		.type	ClockSetup, %function
 238              	ClockSetup:
 239              	.LFB4:
 210:Generated_Source\PSoC5/cyfitter_cfg.c **** 
 211:Generated_Source\PSoC5/cyfitter_cfg.c **** /*******************************************************************************
 212:Generated_Source\PSoC5/cyfitter_cfg.c **** * Function Name: ClockSetup
 213:Generated_Source\PSoC5/cyfitter_cfg.c **** ********************************************************************************
 214:Generated_Source\PSoC5/cyfitter_cfg.c **** *
ARM GAS  C:\Users\gerwi\AppData\Local\Temp\cc2t4O53.s 			page 9


 215:Generated_Source\PSoC5/cyfitter_cfg.c **** * Summary:
 216:Generated_Source\PSoC5/cyfitter_cfg.c **** *  Performs the initialization of all of the clocks in the device based on the
 217:Generated_Source\PSoC5/cyfitter_cfg.c **** *  settings in the Clock tab of the DWR.  This includes enabling the requested
 218:Generated_Source\PSoC5/cyfitter_cfg.c **** *  clocks and setting the necessary dividers to produce the desired frequency. 
 219:Generated_Source\PSoC5/cyfitter_cfg.c **** *
 220:Generated_Source\PSoC5/cyfitter_cfg.c **** * Parameters:
 221:Generated_Source\PSoC5/cyfitter_cfg.c **** *  void
 222:Generated_Source\PSoC5/cyfitter_cfg.c **** *
 223:Generated_Source\PSoC5/cyfitter_cfg.c **** * Return:
 224:Generated_Source\PSoC5/cyfitter_cfg.c **** *  void
 225:Generated_Source\PSoC5/cyfitter_cfg.c **** *
 226:Generated_Source\PSoC5/cyfitter_cfg.c **** *******************************************************************************/
 227:Generated_Source\PSoC5/cyfitter_cfg.c **** static void ClockSetup(void);
 228:Generated_Source\PSoC5/cyfitter_cfg.c **** static void ClockSetup(void)
 229:Generated_Source\PSoC5/cyfitter_cfg.c **** {
 240              		.loc 1 229 0
 241              		.cfi_startproc
 242              		@ args = 0, pretend = 0, frame = 8
 243              		@ frame_needed = 1, uses_anonymous_args = 0
 244 0000 80B5     		push	{r7, lr}
 245              		.cfi_def_cfa_offset 8
 246              		.cfi_offset 7, -8
 247              		.cfi_offset 14, -4
 248 0002 82B0     		sub	sp, sp, #8
 249              		.cfi_def_cfa_offset 16
 250 0004 00AF     		add	r7, sp, #0
 251              		.cfi_def_cfa_register 7
 230:Generated_Source\PSoC5/cyfitter_cfg.c **** 	uint32 timeout;
 231:Generated_Source\PSoC5/cyfitter_cfg.c **** 	uint8 pllLock;
 232:Generated_Source\PSoC5/cyfitter_cfg.c **** 
 233:Generated_Source\PSoC5/cyfitter_cfg.c **** 
 234:Generated_Source\PSoC5/cyfitter_cfg.c **** 	/* Configure Digital Clocks based on settings from Clock DWR */
 235:Generated_Source\PSoC5/cyfitter_cfg.c **** 	CY_SET_XTND_REG16((void CYFAR *)(CYREG_CLKDIST_DCFG0_CFG0), 0x0011u);
 252              		.loc 1 235 0
 253 0006 3C4B     		ldr	r3, .L13
 254 0008 1122     		movs	r2, #17
 255 000a 1A80     		strh	r2, [r3]	@ movhi
 236:Generated_Source\PSoC5/cyfitter_cfg.c **** 	CY_SET_XTND_REG8((void CYFAR *)(CYREG_CLKDIST_DCFG0_CFG0 + 0x2u), 0x18u);
 256              		.loc 1 236 0
 257 000c 3B4B     		ldr	r3, .L13+4
 258 000e 1822     		movs	r2, #24
 259 0010 1A70     		strb	r2, [r3]
 237:Generated_Source\PSoC5/cyfitter_cfg.c **** 	CY_SET_XTND_REG16((void CYFAR *)(CYREG_CLKDIST_DCFG1_CFG0), 0x0002u);
 260              		.loc 1 237 0
 261 0012 3B4B     		ldr	r3, .L13+8
 262 0014 0222     		movs	r2, #2
 263 0016 1A80     		strh	r2, [r3]	@ movhi
 238:Generated_Source\PSoC5/cyfitter_cfg.c **** 	CY_SET_XTND_REG8((void CYFAR *)(CYREG_CLKDIST_DCFG1_CFG0 + 0x2u), 0x19u);
 264              		.loc 1 238 0
 265 0018 3A4B     		ldr	r3, .L13+12
 266 001a 1922     		movs	r2, #25
 267 001c 1A70     		strb	r2, [r3]
 239:Generated_Source\PSoC5/cyfitter_cfg.c **** 
 240:Generated_Source\PSoC5/cyfitter_cfg.c **** 	/* Configure Analog Clocks based on settings from Clock DWR */
 241:Generated_Source\PSoC5/cyfitter_cfg.c **** 	CYCONFIGCPY((void CYFAR *)(CYREG_CLKDIST_ACFG0_CFG0), (const void CYFAR *)(BS_CYDEV_CLKDIST_ACFG0_
 268              		.loc 1 241 0
 269 001e 0422     		movs	r2, #4
ARM GAS  C:\Users\gerwi\AppData\Local\Temp\cc2t4O53.s 			page 10


 270 0020 3949     		ldr	r1, .L13+16
 271 0022 3A48     		ldr	r0, .L13+20
 272 0024 FFF7FEFF 		bl	CYCONFIGCPY
 242:Generated_Source\PSoC5/cyfitter_cfg.c **** 
 243:Generated_Source\PSoC5/cyfitter_cfg.c **** 	/* Configure ILO based on settings from Clock DWR */
 244:Generated_Source\PSoC5/cyfitter_cfg.c **** 	CY_SET_XTND_REG8((void CYFAR *)(CYREG_SLOWCLK_ILO_CR0), 0x06u);
 273              		.loc 1 244 0
 274 0028 394B     		ldr	r3, .L13+24
 275 002a 0622     		movs	r2, #6
 276 002c 1A70     		strb	r2, [r3]
 245:Generated_Source\PSoC5/cyfitter_cfg.c **** 
 246:Generated_Source\PSoC5/cyfitter_cfg.c **** 	/* Configure IMO based on settings from Clock DWR */
 247:Generated_Source\PSoC5/cyfitter_cfg.c **** 	CY_SET_XTND_REG8((void CYFAR *)(CYREG_FASTCLK_IMO_CR), 0x52u);
 277              		.loc 1 247 0
 278 002e 394B     		ldr	r3, .L13+28
 279 0030 5222     		movs	r2, #82
 280 0032 1A70     		strb	r2, [r3]
 248:Generated_Source\PSoC5/cyfitter_cfg.c **** 	CY_SET_XTND_REG8((void CYFAR *)(CYREG_IMO_TR1), (CY_GET_XTND_REG8((void CYFAR *)CYREG_FLSHID_CUST_
 281              		.loc 1 248 0
 282 0034 384B     		ldr	r3, .L13+32
 283 0036 394A     		ldr	r2, .L13+36
 284 0038 1278     		ldrb	r2, [r2]
 285 003a D2B2     		uxtb	r2, r2
 286 003c 1A70     		strb	r2, [r3]
 249:Generated_Source\PSoC5/cyfitter_cfg.c **** 
 250:Generated_Source\PSoC5/cyfitter_cfg.c **** 	/* Configure Bus/Master Clock based on settings from Clock DWR */
 251:Generated_Source\PSoC5/cyfitter_cfg.c **** 	CY_SET_XTND_REG16((void CYFAR *)(CYREG_CLKDIST_MSTR0), 0x0000u);
 287              		.loc 1 251 0
 288 003e 384B     		ldr	r3, .L13+40
 289 0040 0022     		movs	r2, #0
 290 0042 1A80     		strh	r2, [r3]	@ movhi
 252:Generated_Source\PSoC5/cyfitter_cfg.c **** 
 253:Generated_Source\PSoC5/cyfitter_cfg.c **** 	/* Configure PLL based on settings from Clock DWR */
 254:Generated_Source\PSoC5/cyfitter_cfg.c **** 	CY_SET_XTND_REG16((void CYFAR *)(CYREG_FASTCLK_PLL_P), 0x0708u);
 291              		.loc 1 254 0
 292 0044 374B     		ldr	r3, .L13+44
 293 0046 4FF4E162 		mov	r2, #1800
 294 004a 1A80     		strh	r2, [r3]	@ movhi
 255:Generated_Source\PSoC5/cyfitter_cfg.c **** 	CY_SET_XTND_REG16((void CYFAR *)(CYREG_FASTCLK_PLL_CFG0), 0x1251u);
 295              		.loc 1 255 0
 296 004c 364B     		ldr	r3, .L13+48
 297 004e 41F25122 		movw	r2, #4689
 298 0052 1A80     		strh	r2, [r3]	@ movhi
 256:Generated_Source\PSoC5/cyfitter_cfg.c **** 	/* Wait up to 250us for the PLL to lock */
 257:Generated_Source\PSoC5/cyfitter_cfg.c **** 	pllLock = 0u;
 299              		.loc 1 257 0
 300 0054 0023     		movs	r3, #0
 301 0056 FB70     		strb	r3, [r7, #3]
 258:Generated_Source\PSoC5/cyfitter_cfg.c **** 	for (timeout = 250u / 10u; (timeout > 0u) && (pllLock != 0x03u); timeout--)
 302              		.loc 1 258 0
 303 0058 1923     		movs	r3, #25
 304 005a 7B60     		str	r3, [r7, #4]
 305 005c 14E0     		b	.L10
 306              	.L12:
 259:Generated_Source\PSoC5/cyfitter_cfg.c **** 	{ 
 260:Generated_Source\PSoC5/cyfitter_cfg.c **** 		pllLock = 0x03u & ((uint8)((uint8)pllLock << 1) | ((CY_GET_XTND_REG8((void CYFAR *)CYREG_FASTCLK_
 307              		.loc 1 260 0 discriminator 4
ARM GAS  C:\Users\gerwi\AppData\Local\Temp\cc2t4O53.s 			page 11


 308 005e FB78     		ldrb	r3, [r7, #3]
 309 0060 5B00     		lsls	r3, r3, #1
 310 0062 DAB2     		uxtb	r2, r3
 311 0064 314B     		ldr	r3, .L13+52
 312 0066 1B78     		ldrb	r3, [r3]
 313 0068 DBB2     		uxtb	r3, r3
 314 006a 03F00103 		and	r3, r3, #1
 315 006e DBB2     		uxtb	r3, r3
 316 0070 1343     		orrs	r3, r3, r2
 317 0072 DBB2     		uxtb	r3, r3
 318 0074 03F00303 		and	r3, r3, #3
 319 0078 FB70     		strb	r3, [r7, #3]
 261:Generated_Source\PSoC5/cyfitter_cfg.c **** 		CyDelayCycles(10u * 48u); /* Delay 10us based on 48MHz clock */
 320              		.loc 1 261 0 discriminator 4
 321 007a 4FF4F070 		mov	r0, #480
 322 007e FFF7FEFF 		bl	CyDelayCycles
 258:Generated_Source\PSoC5/cyfitter_cfg.c **** 	for (timeout = 250u / 10u; (timeout > 0u) && (pllLock != 0x03u); timeout--)
 323              		.loc 1 258 0 discriminator 4
 324 0082 7B68     		ldr	r3, [r7, #4]
 325 0084 013B     		subs	r3, r3, #1
 326 0086 7B60     		str	r3, [r7, #4]
 327              	.L10:
 258:Generated_Source\PSoC5/cyfitter_cfg.c **** 	for (timeout = 250u / 10u; (timeout > 0u) && (pllLock != 0x03u); timeout--)
 328              		.loc 1 258 0 is_stmt 0 discriminator 1
 329 0088 7B68     		ldr	r3, [r7, #4]
 330 008a 002B     		cmp	r3, #0
 331 008c 02D0     		beq	.L11
 258:Generated_Source\PSoC5/cyfitter_cfg.c **** 	for (timeout = 250u / 10u; (timeout > 0u) && (pllLock != 0x03u); timeout--)
 332              		.loc 1 258 0 discriminator 3
 333 008e FB78     		ldrb	r3, [r7, #3]	@ zero_extendqisi2
 334 0090 032B     		cmp	r3, #3
 335 0092 E4D1     		bne	.L12
 336              	.L11:
 262:Generated_Source\PSoC5/cyfitter_cfg.c **** 	}
 263:Generated_Source\PSoC5/cyfitter_cfg.c **** 	CY_SET_XTND_REG8((void CYFAR *)(CYREG_CLKDIST_MSTR0), 0x07u);
 337              		.loc 1 263 0 is_stmt 1
 338 0094 224B     		ldr	r3, .L13+40
 339 0096 0722     		movs	r2, #7
 340 0098 1A70     		strb	r2, [r3]
 264:Generated_Source\PSoC5/cyfitter_cfg.c **** 	CY_SET_XTND_REG8((void CYFAR *)(CYREG_CLKDIST_BCFG0), 0x00u);
 341              		.loc 1 264 0
 342 009a 254B     		ldr	r3, .L13+56
 343 009c 0022     		movs	r2, #0
 344 009e 1A70     		strb	r2, [r3]
 265:Generated_Source\PSoC5/cyfitter_cfg.c **** 	CY_SET_XTND_REG8((void CYFAR *)(CYREG_CLKDIST_BCFG2), 0x48u);
 345              		.loc 1 265 0
 346 00a0 244B     		ldr	r3, .L13+60
 347 00a2 4822     		movs	r2, #72
 348 00a4 1A70     		strb	r2, [r3]
 266:Generated_Source\PSoC5/cyfitter_cfg.c **** 	CY_SET_XTND_REG8((void CYFAR *)(CYREG_CLKDIST_MSTR0), 0x00u);
 349              		.loc 1 266 0
 350 00a6 1E4B     		ldr	r3, .L13+40
 351 00a8 0022     		movs	r2, #0
 352 00aa 1A70     		strb	r2, [r3]
 267:Generated_Source\PSoC5/cyfitter_cfg.c **** 
 268:Generated_Source\PSoC5/cyfitter_cfg.c **** 	/* Configure USB Clock based on settings from Clock DWR */
 269:Generated_Source\PSoC5/cyfitter_cfg.c **** 	CY_SET_XTND_REG8((void CYFAR *)(CYREG_CLKDIST_UCFG), 0x00u);
ARM GAS  C:\Users\gerwi\AppData\Local\Temp\cc2t4O53.s 			page 12


 353              		.loc 1 269 0
 354 00ac 224B     		ldr	r3, .L13+64
 355 00ae 0022     		movs	r2, #0
 356 00b0 1A70     		strb	r2, [r3]
 270:Generated_Source\PSoC5/cyfitter_cfg.c **** 	CY_SET_XTND_REG8((void CYFAR *)(CYREG_CLKDIST_LD), 0x02u);
 357              		.loc 1 270 0
 358 00b2 224B     		ldr	r3, .L13+68
 359 00b4 0222     		movs	r2, #2
 360 00b6 1A70     		strb	r2, [r3]
 271:Generated_Source\PSoC5/cyfitter_cfg.c **** 	CY_SET_XTND_REG8((void CYFAR *)(CYREG_CLKDIST_DLY1), 0x04u);
 361              		.loc 1 271 0
 362 00b8 214B     		ldr	r3, .L13+72
 363 00ba 0422     		movs	r2, #4
 364 00bc 1A70     		strb	r2, [r3]
 272:Generated_Source\PSoC5/cyfitter_cfg.c **** 
 273:Generated_Source\PSoC5/cyfitter_cfg.c **** 	CY_SET_XTND_REG8((void CYFAR *)(CYREG_PM_ACT_CFG2), ((CY_GET_XTND_REG8((void CYFAR *)CYREG_PM_ACT_
 365              		.loc 1 273 0
 366 00be 214A     		ldr	r2, .L13+76
 367 00c0 204B     		ldr	r3, .L13+76
 368 00c2 1B78     		ldrb	r3, [r3]
 369 00c4 DBB2     		uxtb	r3, r3
 370 00c6 43F00303 		orr	r3, r3, #3
 371 00ca DBB2     		uxtb	r3, r3
 372 00cc 1370     		strb	r3, [r2]
 274:Generated_Source\PSoC5/cyfitter_cfg.c **** 	CY_SET_XTND_REG8((void CYFAR *)(CYREG_PM_ACT_CFG1), ((CY_GET_XTND_REG8((void CYFAR *)CYREG_PM_ACT_
 373              		.loc 1 274 0
 374 00ce 1E4A     		ldr	r2, .L13+80
 375 00d0 1D4B     		ldr	r3, .L13+80
 376 00d2 1B78     		ldrb	r3, [r3]
 377 00d4 DBB2     		uxtb	r3, r3
 378 00d6 43F00103 		orr	r3, r3, #1
 379 00da DBB2     		uxtb	r3, r3
 380 00dc 1370     		strb	r3, [r2]
 275:Generated_Source\PSoC5/cyfitter_cfg.c **** 	CY_SET_XTND_REG8((void CYFAR *)(CYREG_PM_ACT_CFG0), ((CY_GET_XTND_REG8((void CYFAR *)CYREG_PM_ACT_
 381              		.loc 1 275 0
 382 00de 1B4A     		ldr	r2, .L13+84
 383 00e0 1A4B     		ldr	r3, .L13+84
 384 00e2 1B78     		ldrb	r3, [r3]
 385 00e4 DBB2     		uxtb	r3, r3
 386 00e6 63F07F03 		orn	r3, r3, #127
 387 00ea DBB2     		uxtb	r3, r3
 388 00ec 1370     		strb	r3, [r2]
 276:Generated_Source\PSoC5/cyfitter_cfg.c **** }
 389              		.loc 1 276 0
 390 00ee 00BF     		nop
 391 00f0 0837     		adds	r7, r7, #8
 392              		.cfi_def_cfa_offset 8
 393 00f2 BD46     		mov	sp, r7
 394              		.cfi_def_cfa_register 13
 395              		@ sp needed
 396 00f4 80BD     		pop	{r7, pc}
 397              	.L14:
 398 00f6 00BF     		.align	2
 399              	.L13:
 400 00f8 80400040 		.word	1073758336
 401 00fc 82400040 		.word	1073758338
 402 0100 84400040 		.word	1073758340
ARM GAS  C:\Users\gerwi\AppData\Local\Temp\cc2t4O53.s 			page 13


 403 0104 86400040 		.word	1073758342
 404 0108 78040048 		.word	1207960696
 405 010c 00410040 		.word	1073758464
 406 0110 00430040 		.word	1073758976
 407 0114 00420040 		.word	1073758720
 408 0118 A1460040 		.word	1073759905
 409 011c 0F010049 		.word	1224737039
 410 0120 04400040 		.word	1073758212
 411 0124 22420040 		.word	1073758754
 412 0128 20420040 		.word	1073758752
 413 012c 25420040 		.word	1073758757
 414 0130 06400040 		.word	1073758214
 415 0134 08400040 		.word	1073758216
 416 0138 09400040 		.word	1073758217
 417 013c 01400040 		.word	1073758209
 418 0140 0B400040 		.word	1073758219
 419 0144 A2430040 		.word	1073759138
 420 0148 A1430040 		.word	1073759137
 421 014c A0430040 		.word	1073759136
 422              		.cfi_endproc
 423              	.LFE4:
 424              		.size	ClockSetup, .-ClockSetup
 425              		.section	.text.AnalogSetDefault,"ax",%progbits
 426              		.align	2
 427              		.thumb
 428              		.thumb_func
 429              		.type	AnalogSetDefault, %function
 430              	AnalogSetDefault:
 431              	.LFB5:
 277:Generated_Source\PSoC5/cyfitter_cfg.c **** 
 278:Generated_Source\PSoC5/cyfitter_cfg.c **** 
 279:Generated_Source\PSoC5/cyfitter_cfg.c **** /* Analog API Functions */
 280:Generated_Source\PSoC5/cyfitter_cfg.c **** 
 281:Generated_Source\PSoC5/cyfitter_cfg.c **** 
 282:Generated_Source\PSoC5/cyfitter_cfg.c **** /*******************************************************************************
 283:Generated_Source\PSoC5/cyfitter_cfg.c **** * Function Name: AnalogSetDefault
 284:Generated_Source\PSoC5/cyfitter_cfg.c **** ********************************************************************************
 285:Generated_Source\PSoC5/cyfitter_cfg.c **** *
 286:Generated_Source\PSoC5/cyfitter_cfg.c **** * Summary:
 287:Generated_Source\PSoC5/cyfitter_cfg.c **** *  Sets up the analog portions of the chip to default values based on chip
 288:Generated_Source\PSoC5/cyfitter_cfg.c **** *  configuration options from the project.
 289:Generated_Source\PSoC5/cyfitter_cfg.c **** *
 290:Generated_Source\PSoC5/cyfitter_cfg.c **** * Parameters:
 291:Generated_Source\PSoC5/cyfitter_cfg.c **** *  void
 292:Generated_Source\PSoC5/cyfitter_cfg.c **** *
 293:Generated_Source\PSoC5/cyfitter_cfg.c **** * Return:
 294:Generated_Source\PSoC5/cyfitter_cfg.c **** *  void
 295:Generated_Source\PSoC5/cyfitter_cfg.c **** *
 296:Generated_Source\PSoC5/cyfitter_cfg.c **** *******************************************************************************/
 297:Generated_Source\PSoC5/cyfitter_cfg.c **** static void AnalogSetDefault(void);
 298:Generated_Source\PSoC5/cyfitter_cfg.c **** static void AnalogSetDefault(void)
 299:Generated_Source\PSoC5/cyfitter_cfg.c **** {
 432              		.loc 1 299 0
 433              		.cfi_startproc
 434              		@ args = 0, pretend = 0, frame = 8
 435              		@ frame_needed = 1, uses_anonymous_args = 0
 436 0000 80B5     		push	{r7, lr}
ARM GAS  C:\Users\gerwi\AppData\Local\Temp\cc2t4O53.s 			page 14


 437              		.cfi_def_cfa_offset 8
 438              		.cfi_offset 7, -8
 439              		.cfi_offset 14, -4
 440 0002 82B0     		sub	sp, sp, #8
 441              		.cfi_def_cfa_offset 16
 442 0004 00AF     		add	r7, sp, #0
 443              		.cfi_def_cfa_register 7
 300:Generated_Source\PSoC5/cyfitter_cfg.c **** 	uint8 bg_xover_inl_trim = CY_GET_XTND_REG8((void CYFAR *)(CYREG_FLSHID_MFG_CFG_BG_XOVER_INL_TRIM +
 444              		.loc 1 300 0
 445 0006 1E4B     		ldr	r3, .L16
 446 0008 1B78     		ldrb	r3, [r3]
 447 000a FB71     		strb	r3, [r7, #7]
 301:Generated_Source\PSoC5/cyfitter_cfg.c **** 	uint8 cr4 = CY_GET_XTND_REG8((void CYFAR *)(CYREG_RESET_CR4));
 448              		.loc 1 301 0
 449 000c 1D4B     		ldr	r3, .L16+4
 450 000e 1B78     		ldrb	r3, [r3]
 451 0010 BB71     		strb	r3, [r7, #6]
 302:Generated_Source\PSoC5/cyfitter_cfg.c **** 	uint8 cr5 = CY_GET_XTND_REG8((void CYFAR *)(CYREG_RESET_CR5));
 452              		.loc 1 302 0
 453 0012 1D4B     		ldr	r3, .L16+8
 454 0014 1B78     		ldrb	r3, [r3]
 455 0016 7B71     		strb	r3, [r7, #5]
 303:Generated_Source\PSoC5/cyfitter_cfg.c **** 	CY_SET_XTND_REG8((void CYFAR *)(CYREG_BG_DFT0), (bg_xover_inl_trim & 0x07u));
 456              		.loc 1 303 0
 457 0018 1C4A     		ldr	r2, .L16+12
 458 001a FB79     		ldrb	r3, [r7, #7]
 459 001c 03F00703 		and	r3, r3, #7
 460 0020 DBB2     		uxtb	r3, r3
 461 0022 1370     		strb	r3, [r2]
 304:Generated_Source\PSoC5/cyfitter_cfg.c **** 	CY_SET_XTND_REG8((void CYFAR *)(CYREG_BG_DFT1), ((bg_xover_inl_trim >> 4) & 0x0Fu));
 462              		.loc 1 304 0
 463 0024 1A4A     		ldr	r2, .L16+16
 464 0026 FB79     		ldrb	r3, [r7, #7]	@ zero_extendqisi2
 465 0028 1B09     		lsrs	r3, r3, #4
 466 002a DBB2     		uxtb	r3, r3
 467 002c 1370     		strb	r3, [r2]
 305:Generated_Source\PSoC5/cyfitter_cfg.c **** 	/* Disable PRES while setting up SAR voltage reference */
 306:Generated_Source\PSoC5/cyfitter_cfg.c **** 	CY_SET_XTND_REG8((void CYFAR *)(CYREG_RESET_CR4), (cr4 | 0x03u));
 468              		.loc 1 306 0
 469 002e 154A     		ldr	r2, .L16+4
 470 0030 BB79     		ldrb	r3, [r7, #6]
 471 0032 43F00303 		orr	r3, r3, #3
 472 0036 DBB2     		uxtb	r3, r3
 473 0038 1370     		strb	r3, [r2]
 307:Generated_Source\PSoC5/cyfitter_cfg.c **** 	CY_SET_XTND_REG8((void CYFAR *)(CYREG_RESET_CR5), (cr5 | 0x03u));
 474              		.loc 1 307 0
 475 003a 134A     		ldr	r2, .L16+8
 476 003c 7B79     		ldrb	r3, [r7, #5]
 477 003e 43F00303 		orr	r3, r3, #3
 478 0042 DBB2     		uxtb	r3, r3
 479 0044 1370     		strb	r3, [r2]
 308:Generated_Source\PSoC5/cyfitter_cfg.c **** 	CY_SET_XTND_REG8((void CYFAR *)CYREG_PRT0_AG, 0x02u);
 480              		.loc 1 308 0
 481 0046 134B     		ldr	r3, .L16+20
 482 0048 0222     		movs	r2, #2
 483 004a 1A70     		strb	r2, [r3]
 309:Generated_Source\PSoC5/cyfitter_cfg.c **** 	CY_SET_XTND_REG8((void CYFAR *)CYREG_SAR0_CSR1, 0x80u);
ARM GAS  C:\Users\gerwi\AppData\Local\Temp\cc2t4O53.s 			page 15


 484              		.loc 1 309 0
 485 004c 124B     		ldr	r3, .L16+24
 486 004e 8022     		movs	r2, #128
 487 0050 1A70     		strb	r2, [r3]
 310:Generated_Source\PSoC5/cyfitter_cfg.c **** 	CY_SET_XTND_REG8((void CYFAR *)CYREG_SAR0_SW0, 0x20u);
 488              		.loc 1 310 0
 489 0052 124B     		ldr	r3, .L16+28
 490 0054 2022     		movs	r2, #32
 491 0056 1A70     		strb	r2, [r3]
 311:Generated_Source\PSoC5/cyfitter_cfg.c **** 	CY_SET_XTND_REG8((void CYFAR *)CYREG_SAR0_SW3, 0x20u);
 492              		.loc 1 311 0
 493 0058 114B     		ldr	r3, .L16+32
 494 005a 2022     		movs	r2, #32
 495 005c 1A70     		strb	r2, [r3]
 312:Generated_Source\PSoC5/cyfitter_cfg.c **** 	CyDelayUs(10u); /* Allow vref to settle before re-enabling PRES */
 496              		.loc 1 312 0
 497 005e 0A20     		movs	r0, #10
 498 0060 FFF7FEFF 		bl	CyDelayUs
 313:Generated_Source\PSoC5/cyfitter_cfg.c **** 	CY_SET_XTND_REG8((void CYFAR *)(CYREG_RESET_CR5), (cr5));
 499              		.loc 1 313 0
 500 0064 084A     		ldr	r2, .L16+8
 501 0066 7B79     		ldrb	r3, [r7, #5]
 502 0068 1370     		strb	r3, [r2]
 314:Generated_Source\PSoC5/cyfitter_cfg.c **** 	CY_SET_XTND_REG8((void CYFAR *)(CYREG_RESET_CR4), (cr4));
 503              		.loc 1 314 0
 504 006a 064A     		ldr	r2, .L16+4
 505 006c BB79     		ldrb	r3, [r7, #6]
 506 006e 1370     		strb	r3, [r2]
 315:Generated_Source\PSoC5/cyfitter_cfg.c **** 	CY_SET_XTND_REG8((void CYFAR *)CYREG_PUMP_CR0, 0x44u);
 507              		.loc 1 315 0
 508 0070 0C4B     		ldr	r3, .L16+36
 509 0072 4422     		movs	r2, #68
 510 0074 1A70     		strb	r2, [r3]
 316:Generated_Source\PSoC5/cyfitter_cfg.c **** }
 511              		.loc 1 316 0
 512 0076 00BF     		nop
 513 0078 0837     		adds	r7, r7, #8
 514              		.cfi_def_cfa_offset 8
 515 007a BD46     		mov	sp, r7
 516              		.cfi_def_cfa_register 13
 517              		@ sp needed
 518 007c 80BD     		pop	{r7, pc}
 519              	.L17:
 520 007e 00BF     		.align	2
 521              	.L16:
 522 0080 CF010049 		.word	1224737231
 523 0084 F8460040 		.word	1073759992
 524 0088 F9460040 		.word	1073759993
 525 008c 6E580040 		.word	1073764462
 526 0090 6F580040 		.word	1073764463
 527 0094 0D510040 		.word	1073762573
 528 0098 01590040 		.word	1073764609
 529 009c 205B0040 		.word	1073765152
 530 00a0 235B0040 		.word	1073765155
 531 00a4 76580040 		.word	1073764470
 532              		.cfi_endproc
 533              	.LFE5:
ARM GAS  C:\Users\gerwi\AppData\Local\Temp\cc2t4O53.s 			page 16


 534              		.size	AnalogSetDefault, .-AnalogSetDefault
 535              		.section	.text.SetAnalogRoutingPumps,"ax",%progbits
 536              		.align	2
 537              		.global	SetAnalogRoutingPumps
 538              		.thumb
 539              		.thumb_func
 540              		.type	SetAnalogRoutingPumps, %function
 541              	SetAnalogRoutingPumps:
 542              	.LFB6:
 317:Generated_Source\PSoC5/cyfitter_cfg.c **** 
 318:Generated_Source\PSoC5/cyfitter_cfg.c **** 
 319:Generated_Source\PSoC5/cyfitter_cfg.c **** /*******************************************************************************
 320:Generated_Source\PSoC5/cyfitter_cfg.c **** * Function Name: SetAnalogRoutingPumps
 321:Generated_Source\PSoC5/cyfitter_cfg.c **** ********************************************************************************
 322:Generated_Source\PSoC5/cyfitter_cfg.c **** *
 323:Generated_Source\PSoC5/cyfitter_cfg.c **** * Summary:
 324:Generated_Source\PSoC5/cyfitter_cfg.c **** * Enables or disables the analog pumps feeding analog routing switches.
 325:Generated_Source\PSoC5/cyfitter_cfg.c **** * Intended to be called at startup, based on the Vdda system configuration;
 326:Generated_Source\PSoC5/cyfitter_cfg.c **** * may be called during operation when the user informs us that the Vdda voltage
 327:Generated_Source\PSoC5/cyfitter_cfg.c **** * crossed the pump threshold.
 328:Generated_Source\PSoC5/cyfitter_cfg.c **** *
 329:Generated_Source\PSoC5/cyfitter_cfg.c **** * Parameters:
 330:Generated_Source\PSoC5/cyfitter_cfg.c **** *  enabled - 1 to enable the pumps, 0 to disable the pumps
 331:Generated_Source\PSoC5/cyfitter_cfg.c **** *
 332:Generated_Source\PSoC5/cyfitter_cfg.c **** * Return:
 333:Generated_Source\PSoC5/cyfitter_cfg.c **** *  void
 334:Generated_Source\PSoC5/cyfitter_cfg.c **** *
 335:Generated_Source\PSoC5/cyfitter_cfg.c **** *******************************************************************************/
 336:Generated_Source\PSoC5/cyfitter_cfg.c **** void SetAnalogRoutingPumps(uint8 enabled)
 337:Generated_Source\PSoC5/cyfitter_cfg.c **** {
 543              		.loc 1 337 0
 544              		.cfi_startproc
 545              		@ args = 0, pretend = 0, frame = 16
 546              		@ frame_needed = 1, uses_anonymous_args = 0
 547              		@ link register save eliminated.
 548 0000 80B4     		push	{r7}
 549              		.cfi_def_cfa_offset 4
 550              		.cfi_offset 7, -4
 551 0002 85B0     		sub	sp, sp, #20
 552              		.cfi_def_cfa_offset 24
 553 0004 00AF     		add	r7, sp, #0
 554              		.cfi_def_cfa_register 7
 555 0006 0346     		mov	r3, r0
 556 0008 FB71     		strb	r3, [r7, #7]
 338:Generated_Source\PSoC5/cyfitter_cfg.c **** 	uint8 regValue = CY_GET_XTND_REG8((void CYFAR *)CYREG_PUMP_CR0);
 557              		.loc 1 338 0
 558 000a 0B4B     		ldr	r3, .L21
 559 000c 1B78     		ldrb	r3, [r3]
 560 000e FB73     		strb	r3, [r7, #15]
 339:Generated_Source\PSoC5/cyfitter_cfg.c **** 	if (enabled != 0u)
 561              		.loc 1 339 0
 562 0010 FB79     		ldrb	r3, [r7, #7]	@ zero_extendqisi2
 563 0012 002B     		cmp	r3, #0
 564 0014 04D0     		beq	.L19
 340:Generated_Source\PSoC5/cyfitter_cfg.c **** 	{
 341:Generated_Source\PSoC5/cyfitter_cfg.c **** 		regValue |= 0x22u;
 565              		.loc 1 341 0
ARM GAS  C:\Users\gerwi\AppData\Local\Temp\cc2t4O53.s 			page 17


 566 0016 FB7B     		ldrb	r3, [r7, #15]
 567 0018 43F02203 		orr	r3, r3, #34
 568 001c FB73     		strb	r3, [r7, #15]
 569 001e 03E0     		b	.L20
 570              	.L19:
 342:Generated_Source\PSoC5/cyfitter_cfg.c **** 	}
 343:Generated_Source\PSoC5/cyfitter_cfg.c **** 	else
 344:Generated_Source\PSoC5/cyfitter_cfg.c **** 	{
 345:Generated_Source\PSoC5/cyfitter_cfg.c **** 		regValue &= (uint8)~0x22u;
 571              		.loc 1 345 0
 572 0020 FB7B     		ldrb	r3, [r7, #15]
 573 0022 23F02203 		bic	r3, r3, #34
 574 0026 FB73     		strb	r3, [r7, #15]
 575              	.L20:
 346:Generated_Source\PSoC5/cyfitter_cfg.c **** 	}
 347:Generated_Source\PSoC5/cyfitter_cfg.c **** 	CY_SET_XTND_REG8((void CYFAR *)CYREG_PUMP_CR0, regValue);
 576              		.loc 1 347 0
 577 0028 034A     		ldr	r2, .L21
 578 002a FB7B     		ldrb	r3, [r7, #15]
 579 002c 1370     		strb	r3, [r2]
 348:Generated_Source\PSoC5/cyfitter_cfg.c **** }
 580              		.loc 1 348 0
 581 002e 00BF     		nop
 582 0030 1437     		adds	r7, r7, #20
 583              		.cfi_def_cfa_offset 4
 584 0032 BD46     		mov	sp, r7
 585              		.cfi_def_cfa_register 13
 586              		@ sp needed
 587 0034 80BC     		pop	{r7}
 588              		.cfi_restore 7
 589              		.cfi_def_cfa_offset 0
 590 0036 7047     		bx	lr
 591              	.L22:
 592              		.align	2
 593              	.L21:
 594 0038 76580040 		.word	1073764470
 595              		.cfi_endproc
 596              	.LFE6:
 597              		.size	SetAnalogRoutingPumps, .-SetAnalogRoutingPumps
 598              		.section	.text.cyfitter_cfg,"ax",%progbits
 599              		.align	2
 600              		.global	cyfitter_cfg
 601              		.thumb
 602              		.thumb_func
 603              		.type	cyfitter_cfg, %function
 604              	cyfitter_cfg:
 605              	.LFB7:
 349:Generated_Source\PSoC5/cyfitter_cfg.c **** 
 350:Generated_Source\PSoC5/cyfitter_cfg.c **** 
 351:Generated_Source\PSoC5/cyfitter_cfg.c **** 
 352:Generated_Source\PSoC5/cyfitter_cfg.c **** 
 353:Generated_Source\PSoC5/cyfitter_cfg.c **** /*******************************************************************************
 354:Generated_Source\PSoC5/cyfitter_cfg.c **** * Function Name: cyfitter_cfg
 355:Generated_Source\PSoC5/cyfitter_cfg.c **** ********************************************************************************
 356:Generated_Source\PSoC5/cyfitter_cfg.c **** * Summary:
 357:Generated_Source\PSoC5/cyfitter_cfg.c **** *  This function is called by the start-up code for the selected device. It
 358:Generated_Source\PSoC5/cyfitter_cfg.c **** *  performs all of the necessary device configuration based on the design
ARM GAS  C:\Users\gerwi\AppData\Local\Temp\cc2t4O53.s 			page 18


 359:Generated_Source\PSoC5/cyfitter_cfg.c **** *  settings.  This includes settings from the Design Wide Resources (DWR) such
 360:Generated_Source\PSoC5/cyfitter_cfg.c **** *  as Clocks and Pins as well as any component configuration that is necessary.
 361:Generated_Source\PSoC5/cyfitter_cfg.c **** *
 362:Generated_Source\PSoC5/cyfitter_cfg.c **** * Parameters:
 363:Generated_Source\PSoC5/cyfitter_cfg.c **** *   void
 364:Generated_Source\PSoC5/cyfitter_cfg.c **** *
 365:Generated_Source\PSoC5/cyfitter_cfg.c **** * Return:
 366:Generated_Source\PSoC5/cyfitter_cfg.c **** *   void
 367:Generated_Source\PSoC5/cyfitter_cfg.c **** *
 368:Generated_Source\PSoC5/cyfitter_cfg.c **** *******************************************************************************/
 369:Generated_Source\PSoC5/cyfitter_cfg.c **** 
 370:Generated_Source\PSoC5/cyfitter_cfg.c **** void cyfitter_cfg(void)
 371:Generated_Source\PSoC5/cyfitter_cfg.c **** {
 606              		.loc 1 371 0
 607              		.cfi_startproc
 608              		@ args = 0, pretend = 0, frame = 24
 609              		@ frame_needed = 1, uses_anonymous_args = 0
 610 0000 80B5     		push	{r7, lr}
 611              		.cfi_def_cfa_offset 8
 612              		.cfi_offset 7, -8
 613              		.cfi_offset 14, -4
 614 0002 86B0     		sub	sp, sp, #24
 615              		.cfi_def_cfa_offset 32
 616 0004 00AF     		add	r7, sp, #0
 617              		.cfi_def_cfa_register 7
 372:Generated_Source\PSoC5/cyfitter_cfg.c **** #ifdef CYGlobalIntDisable
 373:Generated_Source\PSoC5/cyfitter_cfg.c **** 	/* Disable interrupts by default. Let user enable if/when they want. */
 374:Generated_Source\PSoC5/cyfitter_cfg.c **** 	CYGlobalIntDisable
 618              		.loc 1 374 0
 619              		.syntax unified
 620              	@ 374 "Generated_Source\PSoC5\cyfitter_cfg.c" 1
 621 0006 72B6     		CPSID   i
 622              	@ 0 "" 2
 375:Generated_Source\PSoC5/cyfitter_cfg.c **** #endif
 376:Generated_Source\PSoC5/cyfitter_cfg.c **** 
 377:Generated_Source\PSoC5/cyfitter_cfg.c **** 	/* Enable/Disable Debug functionality based on settings from System DWR */
 378:Generated_Source\PSoC5/cyfitter_cfg.c **** 	CY_SET_XTND_REG8((void CYFAR *)CYREG_MLOGIC_DEBUG, (CY_GET_XTND_REG8((void CYFAR *)CYREG_MLOGIC_DE
 623              		.loc 1 378 0
 624              		.thumb
 625              		.syntax unified
 626 0008 4E4A     		ldr	r2, .L28
 627 000a 4E4B     		ldr	r3, .L28
 628 000c 1B78     		ldrb	r3, [r3]
 629 000e DBB2     		uxtb	r3, r3
 630 0010 43F00403 		orr	r3, r3, #4
 631 0014 DBB2     		uxtb	r3, r3
 632 0016 1370     		strb	r3, [r2]
 633              	.LBB3:
 379:Generated_Source\PSoC5/cyfitter_cfg.c **** 
 380:Generated_Source\PSoC5/cyfitter_cfg.c **** 	{
 381:Generated_Source\PSoC5/cyfitter_cfg.c **** 
 382:Generated_Source\PSoC5/cyfitter_cfg.c **** 		CYPACKED typedef struct {
 383:Generated_Source\PSoC5/cyfitter_cfg.c **** 			void CYFAR *address;
 384:Generated_Source\PSoC5/cyfitter_cfg.c **** 			uint16 size;
 385:Generated_Source\PSoC5/cyfitter_cfg.c **** 		} CYPACKED_ATTR cfg_memset_t;
 386:Generated_Source\PSoC5/cyfitter_cfg.c **** 
 387:Generated_Source\PSoC5/cyfitter_cfg.c **** 
ARM GAS  C:\Users\gerwi\AppData\Local\Temp\cc2t4O53.s 			page 19


 388:Generated_Source\PSoC5/cyfitter_cfg.c **** 		CYPACKED typedef struct {
 389:Generated_Source\PSoC5/cyfitter_cfg.c **** 			void CYFAR *dest;
 390:Generated_Source\PSoC5/cyfitter_cfg.c **** 			const void CYFAR *src;
 391:Generated_Source\PSoC5/cyfitter_cfg.c **** 			uint16 size;
 392:Generated_Source\PSoC5/cyfitter_cfg.c **** 		} CYPACKED_ATTR cfg_memcpy_t;
 393:Generated_Source\PSoC5/cyfitter_cfg.c **** 
 394:Generated_Source\PSoC5/cyfitter_cfg.c **** 		static const cfg_memset_t CYCODE cfg_memset_list[] = {
 395:Generated_Source\PSoC5/cyfitter_cfg.c **** 			/* address, size */
 396:Generated_Source\PSoC5/cyfitter_cfg.c **** 			{(void CYFAR *)(CYREG_TMR0_CFG0), 12u},
 397:Generated_Source\PSoC5/cyfitter_cfg.c **** 			{(void CYFAR *)(CYREG_PRT2_DR), 80u},
 398:Generated_Source\PSoC5/cyfitter_cfg.c **** 			{(void CYFAR *)(CYDEV_UCFG_B0_P0_U0_BASE), 4096u},
 399:Generated_Source\PSoC5/cyfitter_cfg.c **** 			{(void CYFAR *)(CYDEV_UCFG_B1_P2_U0_BASE), 1664u},
 400:Generated_Source\PSoC5/cyfitter_cfg.c **** 			{(void CYFAR *)(CYDEV_UCFG_B1_P5_ROUTE_BASE), 256u},
 401:Generated_Source\PSoC5/cyfitter_cfg.c **** 			{(void CYFAR *)(CYDEV_UCFG_DSI0_BASE), 2560u},
 402:Generated_Source\PSoC5/cyfitter_cfg.c **** 			{(void CYFAR *)(CYDEV_UCFG_DSI12_BASE), 512u},
 403:Generated_Source\PSoC5/cyfitter_cfg.c **** 			{(void CYFAR *)(CYREG_BCTL0_MDCLK_EN), 32u},
 404:Generated_Source\PSoC5/cyfitter_cfg.c **** 		};
 405:Generated_Source\PSoC5/cyfitter_cfg.c **** 
 406:Generated_Source\PSoC5/cyfitter_cfg.c **** 		static const cfg_memcpy_t CYCODE cfg_memcpy_list [] = {
 407:Generated_Source\PSoC5/cyfitter_cfg.c **** 			/* dest, src, size */
 408:Generated_Source\PSoC5/cyfitter_cfg.c **** 			{(void CYFAR *)(CYDEV_UCFG_B1_P5_U1_BASE), BS_UDB_0_0_1_CONFIG_VAL, 128u},
 409:Generated_Source\PSoC5/cyfitter_cfg.c **** 		};
 410:Generated_Source\PSoC5/cyfitter_cfg.c **** 
 411:Generated_Source\PSoC5/cyfitter_cfg.c **** 		uint8 CYDATA i;
 412:Generated_Source\PSoC5/cyfitter_cfg.c **** 
 413:Generated_Source\PSoC5/cyfitter_cfg.c **** 		/* Zero out critical memory blocks before beginning configuration */
 414:Generated_Source\PSoC5/cyfitter_cfg.c **** 		for (i = 0u; i < (sizeof(cfg_memset_list)/sizeof(cfg_memset_list[0])); i++)
 634              		.loc 1 414 0
 635 0018 0023     		movs	r3, #0
 636 001a FB75     		strb	r3, [r7, #23]
 637 001c 13E0     		b	.L24
 638              	.L25:
 639              	.LBB4:
 415:Generated_Source\PSoC5/cyfitter_cfg.c **** 		{
 416:Generated_Source\PSoC5/cyfitter_cfg.c **** 			const cfg_memset_t CYCODE * CYDATA ms = &cfg_memset_list[i];
 640              		.loc 1 416 0 discriminator 3
 641 001e FA7D     		ldrb	r2, [r7, #23]	@ zero_extendqisi2
 642 0020 1346     		mov	r3, r2
 643 0022 5B00     		lsls	r3, r3, #1
 644 0024 1344     		add	r3, r3, r2
 645 0026 5B00     		lsls	r3, r3, #1
 646 0028 474A     		ldr	r2, .L28+4
 647 002a 1344     		add	r3, r3, r2
 648 002c 3B61     		str	r3, [r7, #16]
 417:Generated_Source\PSoC5/cyfitter_cfg.c **** 			CYMEMZERO(ms->address, (size_t)(uint32)(ms->size));
 649              		.loc 1 417 0 discriminator 3
 650 002e 3B69     		ldr	r3, [r7, #16]
 651 0030 1A68     		ldr	r2, [r3]	@ unaligned
 652 0032 3B69     		ldr	r3, [r7, #16]
 653 0034 9B88     		ldrh	r3, [r3, #4]	@ unaligned
 654 0036 9BB2     		uxth	r3, r3
 655 0038 1946     		mov	r1, r3
 656 003a 1046     		mov	r0, r2
 657 003c FFF7FEFF 		bl	CYMEMZERO
 658              	.LBE4:
 414:Generated_Source\PSoC5/cyfitter_cfg.c **** 		{
 659              		.loc 1 414 0 discriminator 3
ARM GAS  C:\Users\gerwi\AppData\Local\Temp\cc2t4O53.s 			page 20


 660 0040 FB7D     		ldrb	r3, [r7, #23]	@ zero_extendqisi2
 661 0042 0133     		adds	r3, r3, #1
 662 0044 FB75     		strb	r3, [r7, #23]
 663              	.L24:
 414:Generated_Source\PSoC5/cyfitter_cfg.c **** 		{
 664              		.loc 1 414 0 is_stmt 0 discriminator 1
 665 0046 FB7D     		ldrb	r3, [r7, #23]	@ zero_extendqisi2
 666 0048 072B     		cmp	r3, #7
 667 004a E8D9     		bls	.L25
 418:Generated_Source\PSoC5/cyfitter_cfg.c **** 		}
 419:Generated_Source\PSoC5/cyfitter_cfg.c **** 
 420:Generated_Source\PSoC5/cyfitter_cfg.c **** 		/* Copy device configuration data into registers */
 421:Generated_Source\PSoC5/cyfitter_cfg.c **** 		for (i = 0u; i < (sizeof(cfg_memcpy_list)/sizeof(cfg_memcpy_list[0])); i++)
 668              		.loc 1 421 0 is_stmt 1
 669 004c 0023     		movs	r3, #0
 670 004e FB75     		strb	r3, [r7, #23]
 671 0050 1CE0     		b	.L26
 672              	.L27:
 673              	.LBB5:
 422:Generated_Source\PSoC5/cyfitter_cfg.c **** 		{
 423:Generated_Source\PSoC5/cyfitter_cfg.c **** 			const cfg_memcpy_t CYCODE * CYDATA mc = &cfg_memcpy_list[i];
 674              		.loc 1 423 0 discriminator 3
 675 0052 FA7D     		ldrb	r2, [r7, #23]	@ zero_extendqisi2
 676 0054 1346     		mov	r3, r2
 677 0056 9B00     		lsls	r3, r3, #2
 678 0058 1344     		add	r3, r3, r2
 679 005a 5B00     		lsls	r3, r3, #1
 680 005c 3B4A     		ldr	r2, .L28+8
 681 005e 1344     		add	r3, r3, r2
 682 0060 FB60     		str	r3, [r7, #12]
 424:Generated_Source\PSoC5/cyfitter_cfg.c **** 			void * CYDATA destPtr = mc->dest;
 683              		.loc 1 424 0 discriminator 3
 684 0062 FB68     		ldr	r3, [r7, #12]
 685 0064 1B68     		ldr	r3, [r3]	@ unaligned
 686 0066 BB60     		str	r3, [r7, #8]
 425:Generated_Source\PSoC5/cyfitter_cfg.c **** 			const void * CYDATA srcPtr = mc->src;
 687              		.loc 1 425 0 discriminator 3
 688 0068 FB68     		ldr	r3, [r7, #12]
 689 006a 5B68     		ldr	r3, [r3, #4]	@ unaligned
 690 006c 7B60     		str	r3, [r7, #4]
 426:Generated_Source\PSoC5/cyfitter_cfg.c **** 			uint16 CYDATA numBytes = mc->size;
 691              		.loc 1 426 0 discriminator 3
 692 006e FB68     		ldr	r3, [r7, #12]
 693 0070 1A7A     		ldrb	r2, [r3, #8]	@ zero_extendqisi2
 694 0072 5B7A     		ldrb	r3, [r3, #9]	@ zero_extendqisi2
 695 0074 1B02     		lsls	r3, r3, #8
 696 0076 1343     		orrs	r3, r3, r2
 697 0078 7B80     		strh	r3, [r7, #2]	@ movhi
 427:Generated_Source\PSoC5/cyfitter_cfg.c **** 			CYCONFIGCPY(destPtr, srcPtr, numBytes);
 698              		.loc 1 427 0 discriminator 3
 699 007a 7B88     		ldrh	r3, [r7, #2]
 700 007c 1A46     		mov	r2, r3
 701 007e 7968     		ldr	r1, [r7, #4]
 702 0080 B868     		ldr	r0, [r7, #8]
 703 0082 FFF7FEFF 		bl	CYCONFIGCPY
 704              	.LBE5:
 421:Generated_Source\PSoC5/cyfitter_cfg.c **** 		{
ARM GAS  C:\Users\gerwi\AppData\Local\Temp\cc2t4O53.s 			page 21


 705              		.loc 1 421 0 discriminator 3
 706 0086 FB7D     		ldrb	r3, [r7, #23]	@ zero_extendqisi2
 707 0088 0133     		adds	r3, r3, #1
 708 008a FB75     		strb	r3, [r7, #23]
 709              	.L26:
 421:Generated_Source\PSoC5/cyfitter_cfg.c **** 		{
 710              		.loc 1 421 0 is_stmt 0 discriminator 1
 711 008c FB7D     		ldrb	r3, [r7, #23]	@ zero_extendqisi2
 712 008e 002B     		cmp	r3, #0
 713 0090 DFD0     		beq	.L27
 428:Generated_Source\PSoC5/cyfitter_cfg.c **** 		}
 429:Generated_Source\PSoC5/cyfitter_cfg.c **** 
 430:Generated_Source\PSoC5/cyfitter_cfg.c **** 		cfg_write_bytes32(cy_cfg_addr_table, cy_cfg_data_table);
 714              		.loc 1 430 0 is_stmt 1
 715 0092 2F49     		ldr	r1, .L28+12
 716 0094 4FF09040 		mov	r0, #1207959552
 717 0098 FFF7FEFF 		bl	cfg_write_bytes32
 431:Generated_Source\PSoC5/cyfitter_cfg.c **** 
 432:Generated_Source\PSoC5/cyfitter_cfg.c **** 		/* Perform normal device configuration. Order is not critical for these items. */
 433:Generated_Source\PSoC5/cyfitter_cfg.c **** 		CYMEMZERO((void CYFAR *)(CYREG_PHUB_CFGMEM0_CFG0), 4u);
 718              		.loc 1 433 0
 719 009c 0421     		movs	r1, #4
 720 009e 2D48     		ldr	r0, .L28+16
 721 00a0 FFF7FEFF 		bl	CYMEMZERO
 434:Generated_Source\PSoC5/cyfitter_cfg.c **** 
 435:Generated_Source\PSoC5/cyfitter_cfg.c **** 		/* Enable digital routing */
 436:Generated_Source\PSoC5/cyfitter_cfg.c **** 		CY_SET_XTND_REG8((void CYFAR *)CYREG_BCTL0_BANK_CTL, CY_GET_XTND_REG8((void CYFAR *)CYREG_BCTL0_B
 722              		.loc 1 436 0
 723 00a4 2C4A     		ldr	r2, .L28+20
 724 00a6 2C4B     		ldr	r3, .L28+20
 725 00a8 1B78     		ldrb	r3, [r3]
 726 00aa DBB2     		uxtb	r3, r3
 727 00ac 43F00203 		orr	r3, r3, #2
 728 00b0 DBB2     		uxtb	r3, r3
 729 00b2 1370     		strb	r3, [r2]
 437:Generated_Source\PSoC5/cyfitter_cfg.c **** 		CY_SET_XTND_REG8((void CYFAR *)CYREG_BCTL1_BANK_CTL, CY_GET_XTND_REG8((void CYFAR *)CYREG_BCTL1_B
 730              		.loc 1 437 0
 731 00b4 294A     		ldr	r2, .L28+24
 732 00b6 294B     		ldr	r3, .L28+24
 733 00b8 1B78     		ldrb	r3, [r3]
 734 00ba DBB2     		uxtb	r3, r3
 735 00bc 43F00203 		orr	r3, r3, #2
 736 00c0 DBB2     		uxtb	r3, r3
 737 00c2 1370     		strb	r3, [r2]
 438:Generated_Source\PSoC5/cyfitter_cfg.c **** 
 439:Generated_Source\PSoC5/cyfitter_cfg.c **** 		/* Enable UDB array */
 440:Generated_Source\PSoC5/cyfitter_cfg.c **** 		CY_SET_XTND_REG8((void CYFAR *)CYREG_PM_ACT_CFG0, CY_GET_XTND_REG8((void CYFAR *)CYREG_PM_ACT_CFG
 738              		.loc 1 440 0
 739 00c4 264A     		ldr	r2, .L28+28
 740 00c6 264B     		ldr	r3, .L28+28
 741 00c8 1B78     		ldrb	r3, [r3]
 742 00ca DBB2     		uxtb	r3, r3
 743 00cc 43F04003 		orr	r3, r3, #64
 744 00d0 DBB2     		uxtb	r3, r3
 745 00d2 1370     		strb	r3, [r2]
 441:Generated_Source\PSoC5/cyfitter_cfg.c **** 		CY_SET_XTND_REG8((void CYFAR *)CYREG_PM_AVAIL_CR2, CY_GET_XTND_REG8((void CYFAR *)CYREG_PM_AVAIL_
 746              		.loc 1 441 0
ARM GAS  C:\Users\gerwi\AppData\Local\Temp\cc2t4O53.s 			page 22


 747 00d4 234A     		ldr	r2, .L28+32
 748 00d6 234B     		ldr	r3, .L28+32
 749 00d8 1B78     		ldrb	r3, [r3]
 750 00da DBB2     		uxtb	r3, r3
 751 00dc 43F01003 		orr	r3, r3, #16
 752 00e0 DBB2     		uxtb	r3, r3
 753 00e2 1370     		strb	r3, [r2]
 754              	.LBE3:
 442:Generated_Source\PSoC5/cyfitter_cfg.c **** 	}
 443:Generated_Source\PSoC5/cyfitter_cfg.c **** 
 444:Generated_Source\PSoC5/cyfitter_cfg.c **** 
 445:Generated_Source\PSoC5/cyfitter_cfg.c **** 	/* Perform second pass device configuration. These items must be configured in specific order afte
 446:Generated_Source\PSoC5/cyfitter_cfg.c **** 	CYCONFIGCPY((void CYFAR *)(CYREG_PRT0_DM0), (const void CYFAR *)(BS_IOPINS0_0_VAL), 8u);
 755              		.loc 1 446 0
 756 00e4 0822     		movs	r2, #8
 757 00e6 2049     		ldr	r1, .L28+36
 758 00e8 2048     		ldr	r0, .L28+40
 759 00ea FFF7FEFF 		bl	CYCONFIGCPY
 447:Generated_Source\PSoC5/cyfitter_cfg.c **** 	CYCONFIGCPY((void CYFAR *)(CYREG_PRT12_DR), (const void CYFAR *)(BS_IOPINS0_7_VAL), 10u);
 760              		.loc 1 447 0
 761 00ee 0A22     		movs	r2, #10
 762 00f0 1F49     		ldr	r1, .L28+44
 763 00f2 2048     		ldr	r0, .L28+48
 764 00f4 FFF7FEFF 		bl	CYCONFIGCPY
 448:Generated_Source\PSoC5/cyfitter_cfg.c **** 	CYCONFIGCPY((void CYFAR *)(CYREG_PRT15_DR), (const void CYFAR *)(BS_IOPINS0_8_VAL), 10u);
 765              		.loc 1 448 0
 766 00f8 0A22     		movs	r2, #10
 767 00fa 1F49     		ldr	r1, .L28+52
 768 00fc 1F48     		ldr	r0, .L28+56
 769 00fe FFF7FEFF 		bl	CYCONFIGCPY
 449:Generated_Source\PSoC5/cyfitter_cfg.c **** 	CYCONFIGCPY((void CYFAR *)(CYREG_PRT1_DM0), (const void CYFAR *)(BS_IOPINS0_1_VAL), 8u);
 770              		.loc 1 449 0
 771 0102 0822     		movs	r2, #8
 772 0104 1E49     		ldr	r1, .L28+60
 773 0106 1F48     		ldr	r0, .L28+64
 774 0108 FFF7FEFF 		bl	CYCONFIGCPY
 450:Generated_Source\PSoC5/cyfitter_cfg.c **** 	/* Switch Boost to the precision bandgap reference from its internal reference */
 451:Generated_Source\PSoC5/cyfitter_cfg.c **** 	CY_SET_REG8((void CYXDATA *)CYREG_BOOST_CR2, (CY_GET_REG8((void CYXDATA *)CYREG_BOOST_CR2) | 0x08u
 775              		.loc 1 451 0
 776 010c 1E4A     		ldr	r2, .L28+68
 777 010e 1E4B     		ldr	r3, .L28+68
 778 0110 1B78     		ldrb	r3, [r3]
 779 0112 DBB2     		uxtb	r3, r3
 780 0114 43F00803 		orr	r3, r3, #8
 781 0118 DBB2     		uxtb	r3, r3
 782 011a 1370     		strb	r3, [r2]
 452:Generated_Source\PSoC5/cyfitter_cfg.c **** 
 453:Generated_Source\PSoC5/cyfitter_cfg.c **** 	/* Set Flash Cycles based on max possible frequency in case a glitch occurs during ClockSetup(). *
 454:Generated_Source\PSoC5/cyfitter_cfg.c **** 	CY_SET_XTND_REG8((void CYFAR *)(CYREG_CACHE_CC_CTL), (((CYDEV_INSTRUCT_CACHE_ENABLED) != 0) ? 0x61
 783              		.loc 1 454 0
 784 011c 1B4B     		ldr	r3, .L28+72
 785 011e 6122     		movs	r2, #97
 786 0120 1A70     		strb	r2, [r3]
 455:Generated_Source\PSoC5/cyfitter_cfg.c **** 	/* Setup clocks based on selections from Clock DWR */
 456:Generated_Source\PSoC5/cyfitter_cfg.c **** 	ClockSetup();
 787              		.loc 1 456 0
 788 0122 FFF7FEFF 		bl	ClockSetup
ARM GAS  C:\Users\gerwi\AppData\Local\Temp\cc2t4O53.s 			page 23


 457:Generated_Source\PSoC5/cyfitter_cfg.c **** 	/* Set Flash Cycles based on newly configured 24.00MHz Bus Clock. */
 458:Generated_Source\PSoC5/cyfitter_cfg.c **** 	CY_SET_XTND_REG8((void CYFAR *)(CYREG_CACHE_CC_CTL), (((CYDEV_INSTRUCT_CACHE_ENABLED) != 0) ? 0x81
 789              		.loc 1 458 0
 790 0126 194B     		ldr	r3, .L28+72
 791 0128 8122     		movs	r2, #129
 792 012a 1A70     		strb	r2, [r3]
 459:Generated_Source\PSoC5/cyfitter_cfg.c **** 
 460:Generated_Source\PSoC5/cyfitter_cfg.c **** 	/* Perform basic analog initialization to defaults */
 461:Generated_Source\PSoC5/cyfitter_cfg.c **** 	AnalogSetDefault();
 793              		.loc 1 461 0
 794 012c FFF7FEFF 		bl	AnalogSetDefault
 462:Generated_Source\PSoC5/cyfitter_cfg.c **** 
 463:Generated_Source\PSoC5/cyfitter_cfg.c **** 	/* Configure alternate active mode */
 464:Generated_Source\PSoC5/cyfitter_cfg.c **** 	CYCONFIGCPY((void CYFAR *)CYDEV_PM_STBY_BASE, (const void CYFAR *)CYDEV_PM_ACT_BASE, 14u);
 795              		.loc 1 464 0
 796 0130 0E22     		movs	r2, #14
 797 0132 0B49     		ldr	r1, .L28+28
 798 0134 1648     		ldr	r0, .L28+76
 799 0136 FFF7FEFF 		bl	CYCONFIGCPY
 465:Generated_Source\PSoC5/cyfitter_cfg.c **** }
 800              		.loc 1 465 0
 801 013a 00BF     		nop
 802 013c 1837     		adds	r7, r7, #24
 803              		.cfi_def_cfa_offset 8
 804 013e BD46     		mov	sp, r7
 805              		.cfi_def_cfa_register 13
 806              		@ sp needed
 807 0140 80BD     		pop	{r7, pc}
 808              	.L29:
 809 0142 00BF     		.align	2
 810              	.L28:
 811 0144 E8460040 		.word	1073759976
 812 0148 00000000 		.word	cfg_memset_list.5014
 813 014c 30000000 		.word	cfg_memcpy_list.5015
 814 0150 74000048 		.word	1207959668
 815 0154 00760040 		.word	1073772032
 816 0158 03500140 		.word	1073827843
 817 015c 13500140 		.word	1073827859
 818 0160 A0430040 		.word	1073759136
 819 0164 C2430040 		.word	1073759170
 820 0168 50040048 		.word	1207960656
 821 016c 02510040 		.word	1073762562
 822 0170 58040048 		.word	1207960664
 823 0174 C0510040 		.word	1073762752
 824 0178 64040048 		.word	1207960676
 825 017c F0510040 		.word	1073762800
 826 0180 70040048 		.word	1207960688
 827 0184 12510040 		.word	1073762578
 828 0188 22430040 		.word	1073759010
 829 018c 00480040 		.word	1073760256
 830 0190 B0430040 		.word	1073759152
 831              		.cfi_endproc
 832              	.LFE7:
 833              		.size	cyfitter_cfg, .-cyfitter_cfg
 834              		.section	.rodata
 835              		.align	2
 836              		.type	cfg_memset_list.5014, %object
ARM GAS  C:\Users\gerwi\AppData\Local\Temp\cc2t4O53.s 			page 24


 837              		.size	cfg_memset_list.5014, 48
 838              	cfg_memset_list.5014:
 839 0000 004F0040 		.word	1073762048
 840 0004 0C00     		.short	12
 841 0006 20510040 		.4byte	1073762592
 842 000a 5000     		.short	80
 843 000c 00000140 		.word	1073807360
 844 0010 0010     		.short	4096
 845 0012 00140140 		.4byte	1073812480
 846 0016 8006     		.short	1664
 847 0018 001B0140 		.word	1073814272
 848 001c 0001     		.short	256
 849 001e 00400140 		.4byte	1073823744
 850 0022 000A     		.short	2560
 851 0024 004C0140 		.word	1073826816
 852 0028 0002     		.short	512
 853 002a 00500140 		.4byte	1073827840
 854 002e 2000     		.short	32
 855              		.align	2
 856              		.type	cfg_memcpy_list.5015, %object
 857              		.size	cfg_memcpy_list.5015, 10
 858              	cfg_memcpy_list.5015:
 859 0030 801A0140 		.word	1073814144
 860 0034 D0030048 		.word	1207960528
 861 0038 8000     		.short	128
 862              		.text
 863              	.Letext0:
 864              		.file 2 "c:\\program files (x86)\\cypress\\psoc creator\\4.2\\psoc creator\\import\\gnu\\arm\\5.4.
 865              		.file 3 "Generated_Source\\PSoC5\\cytypes.h"